target datalayout = "e-m:e-p270:32:32-p271:32:32-p272:64:64-i64:64-i128:128-f80:128-n8:16:32:64-S128"
target triple = "x86_64-unknown-linux-gnu"

%"class.FLAC::Encoder::Stream" = type { ptr, ptr }
%"class.FLAC::Metadata::Prototype" = type <{ ptr, ptr, i8, [7 x i8] }>

; Function Attrs: mustprogress nounwind sspstrong uwtable
define linkonce_odr noundef ptr @_ZNK4FLAC8Metadata9PrototypecvPK20FLAC__StreamMetadataEv(ptr noundef nonnull align 8 dereferenceable(17) %this) #2 comdat align 2 {
entry:
  %this.addr = alloca ptr, align 8
  store ptr %this, ptr %this.addr, align 8
  %this1 = load ptr, ptr %this.addr, align 8
  %object_ = getelementptr inbounds %"class.FLAC::Metadata::Prototype", ptr %this1, i32 0, i32 1
  %0 = load ptr, ptr %object_, align 8
  ret ptr %0
}

; Function Attrs: mustprogress sspstrong uwtable
define noundef zeroext i1 @_ZN4FLAC7Encoder6Stream12set_metadataEPPNS_8Metadata9PrototypeEj(ptr noundef nonnull align 8 dereferenceable(16) %this, ptr noundef %metadata, i32 noundef %num_blocks) unnamed_addr #0 align 2 {
entry:
  %this.addr = alloca ptr, align 8
  %metadata.addr = alloca ptr, align 8
  %num_blocks.addr = alloca i32, align 4
  %m = alloca ptr, align 8
  %i = alloca i32, align 4
  %ok = alloca i8, align 1
  store ptr %this, ptr %this.addr, align 8
  store ptr %metadata, ptr %metadata.addr, align 8
  store i32 %num_blocks, ptr %num_blocks.addr, align 4
  %this1 = load ptr, ptr %this.addr, align 8
  %0 = load i32, ptr %num_blocks.addr, align 4
  %conv = zext i32 %0 to i64
  %1 = call { i64, i1 } @llvm.umul.with.overflow.i64(i64 %conv, i64 8)
  %2 = extractvalue { i64, i1 } %1, 1
  %3 = extractvalue { i64, i1 } %1, 0
  %4 = select i1 %2, i64 -1, i64 %3
  %call = call noalias noundef nonnull ptr @_Znam(i64 noundef %4) #11
  store ptr %call, ptr %m, align 8
  store i32 0, ptr %i, align 4
  br label %for.cond

for.cond:                                         ; preds = %for.inc, %entry
  %5 = load i32, ptr %i, align 4
  %6 = load i32, ptr %num_blocks.addr, align 4
  %cmp = icmp ult i32 %5, %6
  br i1 %cmp, label %for.body, label %for.end

for.body:                                         ; preds = %for.cond
  %7 = load ptr, ptr %metadata.addr, align 8
  %8 = load i32, ptr %i, align 4
  %idxprom = zext i32 %8 to i64
  %arrayidx = getelementptr inbounds ptr, ptr %7, i64 %idxprom
  %9 = load ptr, ptr %arrayidx, align 8
  %call2 = call noundef ptr @_ZNK4FLAC8Metadata9PrototypecvPK20FLAC__StreamMetadataEv(ptr noundef nonnull align 8 dereferenceable(17) %9)
  %10 = load ptr, ptr %m, align 8
  %11 = load i32, ptr %i, align 4
  %idxprom3 = zext i32 %11 to i64
  %arrayidx4 = getelementptr inbounds ptr, ptr %10, i64 %idxprom3
  store ptr %call2, ptr %arrayidx4, align 8
  br label %for.inc

for.inc:                                          ; preds = %for.body
  %12 = load i32, ptr %i, align 4
  %inc = add i32 %12, 1
  store i32 %inc, ptr %i, align 4
  br label %for.cond, !llvm.loop !4

for.end:                                          ; preds = %for.cond
  %encoder_ = getelementptr inbounds %"class.FLAC::Encoder::Stream", ptr %this1, i32 0, i32 1
  %13 = load ptr, ptr %encoder_, align 8
  %14 = load ptr, ptr %m, align 8
  %15 = load i32, ptr %num_blocks.addr, align 4
  %call5 = call i32 @FLAC__stream_encoder_set_metadata(ptr noundef %13, ptr noundef %14, i32 noundef %15)
  %tobool = icmp ne i32 %call5, 0
  %frombool = zext i1 %tobool to i8
  store i8 %frombool, ptr %ok, align 1
  %16 = load ptr, ptr %m, align 8
  %isnull = icmp eq ptr %16, null
  br i1 %isnull, label %delete.end, label %delete.notnull

delete.notnull:                                   ; preds = %for.end
  call void @_ZdaPv(ptr noundef %16) #12
  br label %delete.end

delete.end:                                       ; preds = %delete.notnull, %for.end
  %17 = load i8, ptr %ok, align 1
  %tobool6 = trunc i8 %17 to i1
  ret i1 %tobool6
}