; Function Attrs: mustprogress sspstrong uwtable
define noundef zeroext i1 @_ZN4FLAC7Encoder6Stream12set_metadataEPPNS_8Metadata9PrototypeEj(ptr nocapture noundef nonnull readonly align 8 dereferenceable(16) %this, ptr nocapture noundef readonly %metadata, i32 noundef %num_blocks) unnamed_addr #0 align 2 {
entry:
  %conv = zext i32 %num_blocks to i64
  %0 = shl nuw nsw i64 %conv, 3
  %call = tail call noalias noundef nonnull ptr @_Znam(i64 noundef %0) #13
  %cmp8.not = icmp eq i32 %num_blocks, 0
  br i1 %cmp8.not, label %for.end, label %for.body

for.body:                                         ; preds = %entry, %for.body
  %indvars.iv = phi i64 [ %indvars.iv.next, %for.body ], [ 0, %entry ]
  %arrayidx = getelementptr inbounds ptr, ptr %metadata, i64 %indvars.iv
  %1 = load ptr, ptr %arrayidx, align 8
  %object_.i = getelementptr inbounds i8, ptr %1, i64 8
  %2 = load ptr, ptr %object_.i, align 8
  %arrayidx4 = getelementptr inbounds ptr, ptr %call, i64 %indvars.iv
  store ptr %2, ptr %arrayidx4, align 8
  %indvars.iv.next = add nuw nsw i64 %indvars.iv, 1
  %exitcond.not = icmp eq i64 %indvars.iv.next, %conv
  br i1 %exitcond.not, label %for.end, label %for.body, !llvm.loop !4

for.end:                                          ; preds = %for.body, %entry
  %encoder_ = getelementptr inbounds i8, ptr %this, i64 8
  %3 = load ptr, ptr %encoder_, align 8
  %call5 = tail call i32 @FLAC__stream_encoder_set_metadata(ptr noundef %3, ptr noundef nonnull %call, i32 noundef %num_blocks)
  tail call void @_ZdaPv(ptr noundef nonnull %call) #14
  %tobool = icmp ne i32 %call5, 0
  ret i1 %tobool
}